; Function Attrs: nounwind sspstrong uwtable
define dso_local range(i64 0, 21) i64 @rb_range_beg_len(i64 noundef %0, ptr noundef nonnull writeonly captures(none) %1, ptr noundef nonnull writeonly captures(none) %2, i64 noundef %3, i32 noundef %4) local_unnamed_addr #0 {
  %6 = alloca i64, align 8
  %7 = alloca i64, align 8
  %8 = alloca i32, align 4
  call void @llvm.lifetime.start.p0(i64 8, ptr nonnull %6) #13
  call void @llvm.lifetime.start.p0(i64 8, ptr nonnull %7) #13
  call void @llvm.lifetime.start.p0(i64 4, ptr nonnull %8) #13
  %9 = call i32 @rb_range_values(i64 noundef %0, ptr noundef %6, ptr noundef %7, ptr noundef %8)
  %.not = icmp eq i32 %9, 0
  br i1 %.not, label %45, label %10

10:                                               ; preds = %5
  %11 = load i64, ptr %6, align 8, !tbaa !7
  %12 = load i64, ptr %7, align 8, !tbaa !7
  %13 = load i32, ptr %8, align 4, !tbaa !16
  %14 = icmp eq i64 %11, 4
  br i1 %14, label %rb_num2long_inline.exit.i, label %15

15:                                               ; preds = %10
  %16 = and i64 %11, 1
  %.not.i.i = icmp eq i64 %16, 0
  br i1 %.not.i.i, label %19, label %17

17:                                               ; preds = %15
  %18 = ashr i64 %11, 1
  br label %rb_num2long_inline.exit.i

19:                                               ; preds = %15
  %20 = tail call i64 @rb_num2long(i64 noundef %11) #13
  br label %rb_num2long_inline.exit.i

rb_num2long_inline.exit.i:                        ; preds = %19, %17, %10
  %21 = phi i64 [ 0, %10 ], [ %18, %17 ], [ %20, %19 ]
  %22 = icmp eq i64 %12, 4
  br i1 %22, label %rb_num2long_inline.exit42.i, label %23

23:                                               ; preds = %rb_num2long_inline.exit.i
  %24 = and i64 %12, 1
  %.not.i40.i = icmp eq i64 %24, 0
  br i1 %.not.i40.i, label %27, label %25

25:                                               ; preds = %23
  %26 = ashr i64 %12, 1
  br label %rb_num2long_inline.exit42.i

27:                                               ; preds = %23
  %28 = tail call i64 @rb_num2long(i64 noundef %12) #13
  br label %rb_num2long_inline.exit42.i

rb_num2long_inline.exit42.i:                      ; preds = %27, %25, %rb_num2long_inline.exit.i
  %spec.select.i = phi i32 [ 0, %rb_num2long_inline.exit.i ], [ %13, %25 ], [ %13, %27 ]
  %29 = phi i64 [ -1, %rb_num2long_inline.exit.i ], [ %26, %25 ], [ %28, %27 ]
  %30 = icmp slt i64 %21, 0
  br i1 %30, label %31, label %34

31:                                               ; preds = %rb_num2long_inline.exit42.i
  %32 = add i64 %21, %3
  %33 = icmp slt i64 %32, 0
  br i1 %33, label %rb_range_component_beg_len.exit, label %34

34:                                               ; preds = %31, %rb_num2long_inline.exit42.i
  %.029.i = phi i64 [ %32, %31 ], [ %21, %rb_num2long_inline.exit42.i ]
  %35 = icmp slt i64 %29, 0
  %36 = select i1 %35, i64 %3, i64 0
  %.not.i = icmp eq i32 %spec.select.i, 0
  %37 = zext i1 %.not.i to i64
  %spec.select38.i = add i64 %29, %37
  %.1.i = add i64 %spec.select38.i, %36
  %38 = and i32 %4, -3
  %or.cond.i = icmp eq i32 %38, 0
  br i1 %or.cond.i, label %39, label %rb_range_component_beg_len.exit.thread

39:                                               ; preds = %34
  %40 = icmp sgt i64 %.029.i, %3
  br i1 %40, label %rb_range_component_beg_len.exit, label %41

41:                                               ; preds = %39
  %spec.select39.i = tail call i64 @llvm.smin.i64(i64 %.1.i, i64 %3)
  br label %rb_range_component_beg_len.exit.thread

rb_range_component_beg_len.exit.thread:           ; preds = %34, %41
  %.2.i = phi i64 [ %.1.i, %34 ], [ %spec.select39.i, %41 ]
  %42 = sub i64 %.2.i, %.029.i
  %spec.store.select.i = tail call i64 @llvm.smax.i64(i64 %42, i64 0)
  store i64 %.029.i, ptr %1, align 8, !tbaa !7
  store i64 %spec.store.select.i, ptr %2, align 8, !tbaa !7
  br label %45

rb_range_component_beg_len.exit:                  ; preds = %31, %39
  %.not12 = icmp eq i32 %4, 0
  br i1 %.not12, label %45, label %43

43:                                               ; preds = %rb_range_component_beg_len.exit
  %44 = load i64, ptr @rb_eRangeError, align 8, !tbaa !7
  tail call void (i64, ptr, ...) @rb_raise(i64 noundef %44, ptr noundef nonnull @.str.1, i64 noundef %0) #14
  unreachable

45:                                               ; preds = %rb_range_component_beg_len.exit.thread, %rb_range_component_beg_len.exit, %5
  %.0 = phi i64 [ 0, %5 ], [ 4, %rb_range_component_beg_len.exit ], [ 20, %rb_range_component_beg_len.exit.thread ]
  call void @llvm.lifetime.end.p0(i64 4, ptr nonnull %8) #13
  call void @llvm.lifetime.end.p0(i64 8, ptr nonnull %7) #13
  call void @llvm.lifetime.end.p0(i64 8, ptr nonnull %6) #13
  ret i64 %.0
}